Microchip MPLAB XC8 Compiler V1.43 ()

Linker command line:

-W-3 --edf=/opt/microchip/xc8/v1.43/dat/en_msgs.txt -cs \
  -h+dist/default/production/rommelbachen.X.production.sym \
  --cmf=dist/default/production/rommelbachen.X.production.cmf -z -Q12F675 \
  -o/tmp/xcXQndR39 -Mdist/default/production/rommelbachen.X.production.map \
  -E1 -ver=XC8 -ASTACK=052h-05dh -pstack=STACK -ACODE=00h-03FEh \
  -ASTRCODE=00h-03FEh -ASTRING=00h-0FFhx3,0300h-03FEh \
  -ACONST=00h-0FFhx3,0300h-03FEh -AENTRY=00h-0FFhx3,0300h-03FEh \
  -ABANK0=020h-05Dh -ARAM=020h-05Dh -AABS1=020h-05Fh -ACOMMON=05Eh-05Fh \
  -ASFR0=00h-01Fh -ASFR1=080h-0DDh -preset_vec=00h,intentry,init,end_init \
  -ppowerup=CODE -pcinit=CODE -pfunctab=ENTRY -ACONFIG=02007h-02007h \
  -pconfig=CONFIG -DCONFIG=2 -AIDLOC=02000h-02003h -pidloc=IDLOC -DIDLOC=2 \
  -AEEDATA=00h-07Fh/02100h -peeprom_data=EEDATA -DEEDATA=2 -posccal=03FFh \
  -DCODE=2 -DSTRCODE=2 -DSTRING=2 -DCONST=2 -DENTRY=2 -k /tmp/xcXTXjXwX.obj \
  dist/default/production/rommelbachen.X.production.obj 

Object code version is 3.11

Machine type is 12F675



                Name                               Link     Load   Length Selector   Space Scale
/tmp/xcXTXjXwX.obj
                end_init                              0        0        1        0       0
                config                             2007     2007        1     400E       0
dist/default/production/rommelbachen.X.production.obj
                cinit                               3FD      3FD        2      7FA       0
                text5                               234      234       6D      468       0
                text4                               32E      32E       CF      65C       0
                text3                               2A1      2A1       8D      542       0
                text2                               1D8      1D8       14      3B0       0
                text1                               202      202       32      404       0
                maintext                            1EC      1EC       16      3D8       0
                cstackBANK0                          20       20       32       20       1

TOTAL           Name                               Link     Load   Length     Space
        CLASS   STACK          

        CLASS   CODE           
                end_init                              0        0        1         0
                cinit                               3FD      3FD        2         0
                text5                               234      234       6D         0
                text4                               32E      32E       CF         0
                text3                               2A1      2A1       8D         0
                text2                               1D8      1D8       14         0
                text1                               202      202       32         0
                maintext                            1EC      1EC       16         0

        CLASS   STRCODE        

        CLASS   STRING         

        CLASS   CONST          

        CLASS   ENTRY          

        CLASS   BANK0          
                cstackBANK0                          20       20       32         1

        CLASS   RAM            

        CLASS   ABS1           
                abs_s1                               5E       5E        2         1

        CLASS   COMMON         

        CLASS   SFR0           

        CLASS   SFR1           

        CLASS   CONFIG         
                config                             2007     2007        1         0

        CLASS   IDLOC          

        CLASS   EEDATA         

        CLASS   BANK1          



SEGMENTS        Name                           Load    Length   Top    Selector   Space  Class     Delta

                reset_vec                      000000  000001  000001         0       0  CODE        2
                cstackBANK0                    000020  000032  000052        20       1  BANK0       1
                text2                          0001D8  000014  0001EC       3B0       0  CODE        2
                maintext                       0001EC  000016  000202       3D8       0  CODE        2
                text1                          000202  000032  000234       404       0  CODE        2
                text5                          000234  00006D  0002A1       468       0  CODE        2
                text3                          0002A1  00008D  00032E       542       0  CODE        2
                text4                          00032E  0000CF  0003FD       65C       0  CODE        2
                cinit                          0003FD  000002  0003FF       7FA       0  CODE        2
                config                         002007  000001  002008      400E       0  CONFIG      2


UNUSED ADDRESS RANGES

        Name                Unused          Largest block    Delta
        BANK0            0052-005D              C           1
        CODE             0001-01D7            1D7           2
        CONST            0001-01D7             FF           2
        EEDATA           2100-217F             80           2
        ENTRY            0001-01D7             FF           2
        IDLOC            2000-2003              4           2
        RAM              0052-005D              C           1
        SFR0             0000-001F             20           1
        SFR1             0080-00DD             5E           1
        STACK            0052-005D              C           1
        STRCODE          0001-01D7            1D7           2
        STRING           0001-01D7             FF           2

                                  Symbol Table

?___ftmul                cstackBANK0  002C
?___ftpack               cstackBANK0  0020
?___fttol                cstackBANK0  003C
?___lwtoft               cstackBANK0  0028
SetPwmValue@pwm          cstackBANK0  004A
_CMCON                   (abs)        0019
_GPIO                    (abs)        0005
_GPIObits                (abs)        0005
_IOC                     (abs)        0096
_OPTION_REG              (abs)        0081
_SetPwmValue             text1        0202
_TRISIO                  (abs)        0085
__CFG_BOREN$ON           (abs)        0000
__CFG_CP$OFF             (abs)        0000
__CFG_CPD$OFF            (abs)        0000
__CFG_FOSC$INTRCIO       (abs)        0000
__CFG_MCLRE$OFF          (abs)        0000
__CFG_PWRTE$OFF          (abs)        0000
__CFG_WDTE$OFF           (abs)        0000
__Habs1                  abs1         07FE
__Hbank0                 bank0        07FE
__Hbank1                 bank1        07FE
__Hcinit                 cinit        03FF
__Hclrtext               clrtext      07FE
__Hcode                  code         07FE
__Hcommon                common       07FE
__Hconfig                config       2008
__HcstackBANK0           cstackBANK0  07FE
__HcstackCOMMON          cstackCOMMON 07FE
__Heeprom_data           eeprom_data  0000
__Hend_init              end_init     0001
__Hfunctab               functab      0000
__Hidloc                 idloc        0000
__Hinit                  init         0000
__Hintentry              intentry     0000
__Hmaintext              maintext     07FE
__Hosccal                osccal       03FF
__Hpowerup               powerup      0000
__Hram                   ram          07FE
__Hreset_vec             reset_vec    0000
__Hsfr0                  sfr0         07FE
__Hsfr1                  sfr1         07FE
__Hspace_0               (abs)        2008
__Hspace_1               (abs)        07FE
__Hspace_2               (abs)        0000
__Hspace_3               (abs)        0000
__Hstack                 stack        0000
__Hstrings               strings      07FE
__Htext                  text         07FE
__Labs1                  abs1         07FE
__Lbank0                 bank0        07FE
__Lbank1                 bank1        07FE
__Lcinit                 cinit        03FD
__Lclrtext               clrtext      07FE
__Lcode                  code         07FE
__Lcommon                common       07FE
__Lconfig                config       2007
__LcstackBANK0           cstackBANK0  07FE
__LcstackCOMMON          cstackCOMMON 07FE
__Leeprom_data           eeprom_data  0000
__Lend_init              end_init     0000
__Lfunctab               functab      0000
__Lidloc                 idloc        0000
__Linit                  init         0000
__Lintentry              intentry     0000
__Lmaintext              maintext     07FE
__Losccal                osccal       03FF
__Lpowerup               powerup      0000
__Lram                   ram          07FE
__Lreset_vec             reset_vec    0000
__Lsfr0                  sfr0         07FE
__Lsfr1                  sfr1         07FE
__Lspace_0               (abs)        0000
__Lspace_1               (abs)        0000
__Lspace_2               (abs)        0000
__Lspace_3               (abs)        0000
__Lstack                 stack        0000
__Lstrings               strings      07FE
__Ltext                  text         07FE
__S0                     (abs)        2008
__S1                     (abs)        0052
__S2                     (abs)        0000
__S3                     (abs)        0000
___ftmul                 text4        032E
___ftmul@cntr            cstackBANK0  003A
___ftmul@exp             cstackBANK0  0036
___ftmul@f1              cstackBANK0  002C
___ftmul@f2              cstackBANK0  002F
___ftmul@f3_as_product   cstackBANK0  0037
___ftmul@sign            cstackBANK0  003B
___ftpack                text5        0234
___ftpack@arg            cstackBANK0  0020
___ftpack@exp            cstackBANK0  0023
___ftpack@sign           cstackBANK0  0024
___fttol                 text3        02A1
___fttol@exp1            cstackBANK0  0049
___fttol@f1              cstackBANK0  003C
___fttol@lval            cstackBANK0  0045
___fttol@sign1           cstackBANK0  0044
___int_sp                stack        0000
___latbits               (abs)        0000
___lwtoft                text2        01D8
___lwtoft@c              cstackBANK0  0028
___osccal_val            osccal       03FF
___sp                    stack        0000
__end_of_SetPwmValue     text1        0234
__end_of___ftmul         text4        03FD
__end_of___ftpack        text5        02A1
__end_of___fttol         text3        032E
__end_of___lwtoft        text2        01EC
__end_of__initialization cinit        03FD
__end_of_main            maintext     0202
__initialization         cinit        03FD
__pcstackBANK0           cstackBANK0  0020
__pcstackCOMMON          cstackCOMMON 0000
__pmaintext              maintext     01EC
__ptext1                 text1        0202
__ptext2                 text2        01D8
__ptext3                 text3        02A1
__ptext4                 text4        032E
__ptext5                 text5        0234
__size_of_SetPwmValue    (abs)        0000
__size_of___ftmul        (abs)        0000
__size_of___ftpack       (abs)        0000
__size_of___fttol        (abs)        0000
__size_of___lwtoft       (abs)        0000
__size_of_main           (abs)        0000
_main                    maintext     01EC
btemp                    (abs)        005E
end_of_initialization    cinit        03FD
intlevel0                functab      0000
intlevel1                functab      0000
intlevel2                functab      0000
intlevel3                functab      0000
intlevel4                functab      0000
intlevel5                functab      0000
main@pwm                 cstackBANK0  0050
reset_vec                reset_vec    0000
stackhi                  (abs)        0000
stacklo                  (abs)        0000
start                    init         0000
start_initialization     cinit        03FD
wtemp0                   (abs)        005E


FUNCTION INFORMATION:

 *************** function _main *****************
 Defined at:
		line 28 in file "main.c"
 Parameters:    Size  Location     Type
		None
 Auto vars:     Size  Location     Type
  pwm             2   48[BANK0 ] unsigned int 
 Return value:  Size  Location     Type
                  1    wreg      void 
 Registers used:
		wreg, status,2, status,0, pclath, cstack
 Tracked objects:
		On entry : 
		On exit  : 
		Unchanged: 
 Data sizes:     COMMON   BANK0
      Params:         0       0
      Locals:         0       2
      Temps:          0       0
      Totals:         0       2
Total ram usage:        2 bytes
 Hardware stack levels required when called:    3
 This function calls:
		_SetPwmValue
 This function is called by:
		Startup code after reset
 This function uses a non-reentrant model


 *************** function _SetPwmValue *****************
 Defined at:
		line 18 in file "main.c"
 Parameters:    Size  Location     Type
  pwm             2   42[BANK0 ] unsigned int 
 Auto vars:     Size  Location     Type
		None
 Return value:  Size  Location     Type
                  1    wreg      void 
 Registers used:
		wreg, status,2, status,0, pclath, cstack
 Tracked objects:
		On entry : 
		On exit  : 
		Unchanged: 
 Data sizes:     COMMON   BANK0
      Params:         0       2
      Locals:         0       0
      Temps:          0       4
      Totals:         0       6
Total ram usage:        6 bytes
 Hardware stack levels used:    1
 Hardware stack levels required when called:    2
 This function calls:
		___ftmul
		___fttol
		___lwtoft
 This function is called by:
		_main
 This function uses a non-reentrant model


 *************** function ___lwtoft *****************
 Defined at:
		line 28 in file "/opt/microchip/xc8/v1.43/sources/common/lwtoft.c"
 Parameters:    Size  Location     Type
  c               2    8[BANK0 ] unsigned int 
 Auto vars:     Size  Location     Type
		None
 Return value:  Size  Location     Type
                  3    8[BANK0 ] float 
 Registers used:
		wreg, status,2, status,0, pclath, cstack
 Tracked objects:
		On entry : 
		On exit  : 
		Unchanged: 
 Data sizes:     COMMON   BANK0
      Params:         0       3
      Locals:         0       0
      Temps:          0       1
      Totals:         0       4
Total ram usage:        4 bytes
 Hardware stack levels used:    1
 Hardware stack levels required when called:    1
 This function calls:
		___ftpack
 This function is called by:
		_SetPwmValue
 This function uses a non-reentrant model


 *************** function ___fttol *****************
 Defined at:
		line 44 in file "/opt/microchip/xc8/v1.43/sources/common/fttol.c"
 Parameters:    Size  Location     Type
  f1              3   28[BANK0 ] float 
 Auto vars:     Size  Location     Type
  lval            4   37[BANK0 ] unsigned long 
  exp1            1   41[BANK0 ] unsigned char 
  sign1           1   36[BANK0 ] unsigned char 
 Return value:  Size  Location     Type
                  4   28[BANK0 ] long 
 Registers used:
		wreg, status,2, status,0
 Tracked objects:
		On entry : 
		On exit  : 
		Unchanged: 
 Data sizes:     COMMON   BANK0
      Params:         0       4
      Locals:         0       6
      Temps:          0       4
      Totals:         0      14
Total ram usage:       14 bytes
 Hardware stack levels used:    1
 This function calls:
		Nothing
 This function is called by:
		_SetPwmValue
 This function uses a non-reentrant model


 *************** function ___ftmul *****************
 Defined at:
		line 62 in file "/opt/microchip/xc8/v1.43/sources/common/ftmul.c"
 Parameters:    Size  Location     Type
  f1              3   12[BANK0 ] float 
  f2              3   15[BANK0 ] float 
 Auto vars:     Size  Location     Type
  f3_as_produc    3   23[BANK0 ] unsigned um
  sign            1   27[BANK0 ] unsigned char 
  cntr            1   26[BANK0 ] unsigned char 
  exp             1   22[BANK0 ] unsigned char 
 Return value:  Size  Location     Type
                  3   12[BANK0 ] float 
 Registers used:
		wreg, status,2, status,0, pclath, cstack
 Tracked objects:
		On entry : 
		On exit  : 
		Unchanged: 
 Data sizes:     COMMON   BANK0
      Params:         0       6
      Locals:         0       6
      Temps:          0       4
      Totals:         0      16
Total ram usage:       16 bytes
 Hardware stack levels used:    1
 Hardware stack levels required when called:    1
 This function calls:
		___ftpack
 This function is called by:
		_SetPwmValue
 This function uses a non-reentrant model


 *************** function ___ftpack *****************
 Defined at:
		line 62 in file "/opt/microchip/xc8/v1.43/sources/common/float.c"
 Parameters:    Size  Location     Type
  arg             3    0[BANK0 ] unsigned um
  exp             1    3[BANK0 ] unsigned char 
  sign            1    4[BANK0 ] unsigned char 
 Auto vars:     Size  Location     Type
		None
 Return value:  Size  Location     Type
                  3    0[BANK0 ] float 
 Registers used:
		wreg, status,2, status,0
 Tracked objects:
		On entry : 
		On exit  : 
		Unchanged: 
 Data sizes:     COMMON   BANK0
      Params:         0       5
      Locals:         0       0
      Temps:          0       3
      Totals:         0       8
Total ram usage:        8 bytes
 Hardware stack levels used:    1
 This function calls:
		Nothing
 This function is called by:
		___ftmul
		___lwtoft
 This function uses a non-reentrant model



MODULE INFORMATION

Module		Function		Class		Link	Load	Size
/opt/microchip/xc8/v1.43/sources/common/ftmul.c
		___ftmul       		CODE           	032E	0000	208

/opt/microchip/xc8/v1.43/sources/common/ftmul.c estimated size: 208

/opt/microchip/xc8/v1.43/sources/common/fttol.c
		___fttol       		CODE           	02A1	0000	142

/opt/microchip/xc8/v1.43/sources/common/fttol.c estimated size: 142

shared
		__initialization		CODE           	03FD	0000	1

shared estimated size: 1

/opt/microchip/xc8/v1.43/sources/common/float.c
		___ftpack      		CODE           	0234	0000	110

/opt/microchip/xc8/v1.43/sources/common/float.c estimated size: 110

main.c
		_SetPwmValue   		CODE           	0202	0000	51
		_main          		CODE           	01EC	0000	23

main.c estimated size: 74

/opt/microchip/xc8/v1.43/sources/common/lwtoft.c
		___lwtoft      		CODE           	01D8	0000	21

/opt/microchip/xc8/v1.43/sources/common/lwtoft.c estimated size: 21

